; ModuleID = '19/354.c'
source_filename = "19/354.c"
target datalayout = "e-m:e-p270:32:32-p271:32:32-p272:64:64-i64:64-f80:128-n8:16:32:64-S128"
target triple = "x86_64-pc-linux-gnu"

@.str = private unnamed_addr constant [3 x i8] c"%s\00", align 1
@.str.1 = private unnamed_addr constant [2 x i8] c" \00", align 1

; Function Attrs: noinline nounwind uwtable
define dso_local void @main() #0 {
  %1 = alloca [100 x i8], align 16
  %2 = alloca [100 x i8], align 16
  %3 = alloca [100 x i8], align 16
  %4 = alloca [100 x [100 x i8]], align 16
  %5 = alloca i32, align 4
  %6 = alloca i32, align 4
  %7 = alloca i32, align 4
  %8 = alloca i32, align 4
  %9 = alloca i32, align 4
  %10 = alloca i32, align 4
  %11 = alloca i32, align 4
  %12 = alloca i32, align 4
  store i32 0, i32* %6, align 4
  store i32 0, i32* %7, align 4
  store i32 -1, i32* %11, align 4
  store i32 1, i32* %12, align 4
  %13 = getelementptr inbounds [100 x i8], [100 x i8]* %1, i64 0, i64 0
  %14 = call i32 (i8*, ...) bitcast (i32 (...)* @gets to i32 (i8*, ...)*)(i8* %13)
  %15 = getelementptr inbounds [100 x i8], [100 x i8]* %2, i64 0, i64 0
  %16 = call i32 (i8*, ...) bitcast (i32 (...)* @gets to i32 (i8*, ...)*)(i8* %15)
  %17 = getelementptr inbounds [100 x i8], [100 x i8]* %3, i64 0, i64 0
  %18 = call i32 (i8*, ...) bitcast (i32 (...)* @gets to i32 (i8*, ...)*)(i8* %17)
  %19 = getelementptr inbounds [100 x i8], [100 x i8]* %1, i64 0, i64 0
  %20 = call i64 @strlen(i8* %19) #3
  %21 = trunc i64 %20 to i32
  store i32 %21, i32* %9, align 4
  %22 = getelementptr inbounds [100 x i8], [100 x i8]* %2, i64 0, i64 0
  %23 = call i64 @strlen(i8* %22) #3
  %24 = trunc i64 %23 to i32
  store i32 %24, i32* %8, align 4
  %25 = load i32, i32* %9, align 4
  %26 = sext i32 %25 to i64
  %27 = getelementptr inbounds [100 x i8], [100 x i8]* %1, i64 0, i64 %26
  store i8 0, i8* %27, align 1
  store i32 0, i32* %6, align 4
  br label %28

28:                                               ; preds = %79, %0
  %29 = load i32, i32* %5, align 4
  %30 = load i32, i32* %9, align 4
  %31 = icmp sle i32 %29, %30
  br i1 %31, label %32, label %82

32:                                               ; preds = %28
  %33 = load i32, i32* %11, align 4
  %34 = add nsw i32 %33, 1
  store i32 %34, i32* %5, align 4
  store i32 0, i32* %10, align 4
  br label %35

35:                                               ; preds = %73, %32
  %36 = load i32, i32* %5, align 4
  %37 = load i32, i32* %9, align 4
  %38 = icmp sle i32 %36, %37
  br i1 %38, label %39, label %78

39:                                               ; preds = %35
  %40 = load i32, i32* %5, align 4
  %41 = sext i32 %40 to i64
  %42 = getelementptr inbounds [100 x i8], [100 x i8]* %1, i64 0, i64 %41
  %43 = load i8, i8* %42, align 1
  %44 = sext i8 %43 to i32
  %45 = icmp ne i32 %44, 32
  br i1 %45, label %46, label %64

46:                                               ; preds = %39
  %47 = load i32, i32* %5, align 4
  %48 = sext i32 %47 to i64
  %49 = getelementptr inbounds [100 x i8], [100 x i8]* %1, i64 0, i64 %48
  %50 = load i8, i8* %49, align 1
  %51 = sext i8 %50 to i32
  %52 = icmp ne i32 %51, 0
  br i1 %52, label %53, label %64

53:                                               ; preds = %46
  %54 = load i32, i32* %5, align 4
  %55 = sext i32 %54 to i64
  %56 = getelementptr inbounds [100 x i8], [100 x i8]* %1, i64 0, i64 %55
  %57 = load i8, i8* %56, align 1
  %58 = load i32, i32* %6, align 4
  %59 = sext i32 %58 to i64
  %60 = getelementptr inbounds [100 x [100 x i8]], [100 x [100 x i8]]* %4, i64 0, i64 %59
  %61 = load i32, i32* %10, align 4
  %62 = sext i32 %61 to i64
  %63 = getelementptr inbounds [100 x i8], [100 x i8]* %60, i64 0, i64 %62
  store i8 %57, i8* %63, align 1
  br label %72

64:                                               ; preds = %46, %39
  %65 = load i32, i32* %6, align 4
  %66 = sext i32 %65 to i64
  %67 = getelementptr inbounds [100 x [100 x i8]], [100 x [100 x i8]]* %4, i64 0, i64 %66
  %68 = load i32, i32* %10, align 4
  %69 = sext i32 %68 to i64
  %70 = getelementptr inbounds [100 x i8], [100 x i8]* %67, i64 0, i64 %69
  store i8 0, i8* %70, align 1
  %71 = load i32, i32* %5, align 4
  store i32 %71, i32* %11, align 4
  br label %78

72:                                               ; preds = %53
  br label %73

73:                                               ; preds = %72
  %74 = load i32, i32* %5, align 4
  %75 = add nsw i32 %74, 1
  store i32 %75, i32* %5, align 4
  %76 = load i32, i32* %10, align 4
  %77 = add nsw i32 %76, 1
  store i32 %77, i32* %10, align 4
  br label %35

78:                                               ; preds = %64, %35
  br label %79

79:                                               ; preds = %78
  %80 = load i32, i32* %6, align 4
  %81 = add nsw i32 %80, 1
  store i32 %81, i32* %6, align 4
  br label %28

82:                                               ; preds = %28
  %83 = load i32, i32* %6, align 4
  %84 = sub nsw i32 %83, 1
  store i32 %84, i32* %11, align 4
  store i32 0, i32* %6, align 4
  br label %85

85:                                               ; preds = %164, %82
  %86 = load i32, i32* %6, align 4
  %87 = load i32, i32* %11, align 4
  %88 = icmp slt i32 %86, %87
  br i1 %88, label %89, label %167

89:                                               ; preds = %85
  store i32 1, i32* %12, align 4
  %90 = load i32, i32* %6, align 4
  %91 = sext i32 %90 to i64
  %92 = getelementptr inbounds [100 x [100 x i8]], [100 x [100 x i8]]* %4, i64 0, i64 %91
  %93 = getelementptr inbounds [100 x i8], [100 x i8]* %92, i64 0, i64 0
  %94 = call i64 @strlen(i8* %93) #3
  %95 = trunc i64 %94 to i32
  store i32 %95, i32* %7, align 4
  %96 = load i32, i32* %8, align 4
  %97 = load i32, i32* %7, align 4
  %98 = icmp ne i32 %96, %97
  br i1 %98, label %99, label %112

99:                                               ; preds = %89
  %100 = load i32, i32* %6, align 4
  %101 = sext i32 %100 to i64
  %102 = getelementptr inbounds [100 x [100 x i8]], [100 x [100 x i8]]* %4, i64 0, i64 %101
  %103 = getelementptr inbounds [100 x i8], [100 x i8]* %102, i64 0, i64 0
  %104 = call i32 (i8*, ...) @printf(i8* getelementptr inbounds ([3 x i8], [3 x i8]* @.str, i64 0, i64 0), i8* %103)
  %105 = load i32, i32* %6, align 4
  %106 = load i32, i32* %11, align 4
  %107 = sub nsw i32 %106, 1
  %108 = icmp slt i32 %105, %107
  br i1 %108, label %109, label %111

109:                                              ; preds = %99
  %110 = call i32 (i8*, ...) @printf(i8* getelementptr inbounds ([2 x i8], [2 x i8]* @.str.1, i64 0, i64 0))
  br label %111

111:                                              ; preds = %109, %99
  br label %164

112:                                              ; preds = %89
  store i32 0, i32* %5, align 4
  br label %113

113:                                              ; preds = %146, %112
  %114 = load i32, i32* %5, align 4
  %115 = load i32, i32* %8, align 4
  %116 = icmp slt i32 %114, %115
  br i1 %116, label %117, label %149

117:                                              ; preds = %113
  %118 = load i32, i32* %6, align 4
  %119 = sext i32 %118 to i64
  %120 = getelementptr inbounds [100 x [100 x i8]], [100 x [100 x i8]]* %4, i64 0, i64 %119
  %121 = load i32, i32* %5, align 4
  %122 = sext i32 %121 to i64
  %123 = getelementptr inbounds [100 x i8], [100 x i8]* %120, i64 0, i64 %122
  %124 = load i8, i8* %123, align 1
  %125 = sext i8 %124 to i32
  %126 = load i32, i32* %5, align 4
  %127 = sext i32 %126 to i64
  %128 = getelementptr inbounds [100 x i8], [100 x i8]* %2, i64 0, i64 %127
  %129 = load i8, i8* %128, align 1
  %130 = sext i8 %129 to i32
  %131 = icmp ne i32 %125, %130
  br i1 %131, label %132, label %145

132:                                              ; preds = %117
  %133 = load i32, i32* %6, align 4
  %134 = sext i32 %133 to i64
  %135 = getelementptr inbounds [100 x [100 x i8]], [100 x [100 x i8]]* %4, i64 0, i64 %134
  %136 = getelementptr inbounds [100 x i8], [100 x i8]* %135, i64 0, i64 0
  %137 = call i32 (i8*, ...) @printf(i8* getelementptr inbounds ([3 x i8], [3 x i8]* @.str, i64 0, i64 0), i8* %136)
  %138 = load i32, i32* %6, align 4
  %139 = load i32, i32* %11, align 4
  %140 = sub nsw i32 %139, 1
  %141 = icmp slt i32 %138, %140
  br i1 %141, label %142, label %144

142:                                              ; preds = %132
  %143 = call i32 (i8*, ...) @printf(i8* getelementptr inbounds ([2 x i8], [2 x i8]* @.str.1, i64 0, i64 0))
  br label %144

144:                                              ; preds = %142, %132
  store i32 0, i32* %12, align 4
  br label %149

145:                                              ; preds = %117
  br label %146

146:                                              ; preds = %145
  %147 = load i32, i32* %5, align 4
  %148 = add nsw i32 %147, 1
  store i32 %148, i32* %5, align 4
  br label %113

149:                                              ; preds = %144, %113
  br label %150

150:                                              ; preds = %149
  %151 = load i32, i32* %12, align 4
  %152 = icmp eq i32 %151, 1
  br i1 %152, label %153, label %163

153:                                              ; preds = %150
  %154 = getelementptr inbounds [100 x i8], [100 x i8]* %3, i64 0, i64 0
  %155 = call i32 (i8*, ...) @printf(i8* getelementptr inbounds ([3 x i8], [3 x i8]* @.str, i64 0, i64 0), i8* %154)
  %156 = load i32, i32* %6, align 4
  %157 = load i32, i32* %11, align 4
  %158 = sub nsw i32 %157, 1
  %159 = icmp slt i32 %156, %158
  br i1 %159, label %160, label %162

160:                                              ; preds = %153
  %161 = call i32 (i8*, ...) @printf(i8* getelementptr inbounds ([2 x i8], [2 x i8]* @.str.1, i64 0, i64 0))
  br label %162

162:                                              ; preds = %160, %153
  br label %163

163:                                              ; preds = %162, %150
  br label %164

164:                                              ; preds = %163, %111
  %165 = load i32, i32* %6, align 4
  %166 = add nsw i32 %165, 1
  store i32 %166, i32* %6, align 4
  br label %85

167:                                              ; preds = %85
  ret void
}

declare dso_local i32 @gets(...) #1

; Function Attrs: nounwind readonly
declare dso_local i64 @strlen(i8*) #2

declare dso_local i32 @printf(i8*, ...) #1


!llvm.module.flags = !{!0}
!llvm.ident = !{!1}

!0 = !{i32 1, !"wchar_size", i32 4}
!1 = !{!"clang version 10.0.0-4ubuntu1 "}
